target datalayout = "e-m:e-p270:32:32-p271:32:32-p272:64:64-i64:64-i128:128-f80:128-n8:16:32:64-S128"
target triple = "x86_64-pc-linux-gnu"

%struct.quic_hp_cipher = type { ptr }

; Function Attrs: alwaysinline nounwind
define internal ptr @memcpy.inline(ptr noalias %0, ptr noalias %1, i64 %2) #4 {
  %4 = alloca ptr, align 8
  %5 = alloca ptr, align 8
  %6 = alloca i64, align 8
  store ptr %0, ptr %4, align 8
  store ptr %1, ptr %5, align 8
  store i64 %2, ptr %6, align 8
  %7 = load ptr, ptr %4, align 8
  %8 = load ptr, ptr %5, align 8
  %9 = load i64, ptr %6, align 8
  %10 = load ptr, ptr %4, align 8
  %11 = call i64 @llvm.objectsize.i64.p0(ptr %10, i1 false, i1 true, i1 true)
  %12 = call ptr @__memcpy_chk(ptr noundef %7, ptr noundef %8, i64 noundef %9, i64 noundef %11) #19
  ret ptr %12
}

; Function Attrs: null_pointer_is_valid sspstrong uwtable
define internal zeroext i1 @quic_decrypt_header(ptr noundef %0, i32 noundef %1, ptr noundef %2, i32 noundef %3, ptr noundef %4, ptr noundef %5, i1 noundef zeroext %6) #0 {
  %8 = alloca i1, align 1
  %9 = alloca ptr, align 8
  %10 = alloca i32, align 4
  %11 = alloca ptr, align 8
  %12 = alloca i32, align 4
  %13 = alloca ptr, align 8
  %14 = alloca ptr, align 8
  %15 = alloca i8, align 1
  %16 = alloca ptr, align 8
  %17 = alloca [16 x i8], align 16
  %18 = alloca [5 x i8], align 1
  %19 = alloca i32, align 4
  %20 = alloca i8, align 1
  %21 = alloca i32, align 4
  %22 = alloca [4 x i8], align 1
  %23 = alloca i32, align 4
  %24 = alloca i32, align 4
  store ptr %0, ptr %9, align 8
  store i32 %1, ptr %10, align 4
  store ptr %2, ptr %11, align 8
  store i32 %3, ptr %12, align 4
  store ptr %4, ptr %13, align 8
  store ptr %5, ptr %14, align 8
  %25 = zext i1 %6 to i8
  store i8 %25, ptr %15, align 1
  %26 = load ptr, ptr %11, align 8
  %27 = getelementptr inbounds nuw %struct.quic_hp_cipher, ptr %26, i32 0, i32 0
  %28 = load ptr, ptr %27, align 8
  %29 = icmp ne ptr %28, null
  br i1 %29, label %31, label %30

30:                                               ; preds = %7
  store i1 false, ptr %8, align 1
  br label %151

31:                                               ; preds = %7
  call void @llvm.lifetime.start.p0(i64 8, ptr %16) #19
  %32 = load ptr, ptr %11, align 8
  %33 = getelementptr inbounds nuw %struct.quic_hp_cipher, ptr %32, i32 0, i32 0
  %34 = load ptr, ptr %33, align 8
  store ptr %34, ptr %16, align 8
  call void @llvm.lifetime.start.p0(i64 16, ptr %17) #19
  %35 = load ptr, ptr %9, align 8
  %36 = getelementptr inbounds [16 x i8], ptr %17, i64 0, i64 0
  %37 = load i32, ptr %10, align 4
  %38 = add i32 %37, 4
  %39 = call ptr @tvb_memcpy(ptr noundef %35, ptr noundef %36, i32 noundef %38, i64 noundef 16)
  call void @llvm.lifetime.start.p0(i64 5, ptr %18) #19
  call void @llvm.memset.p0.i64(ptr align 1 %18, i8 0, i64 5, i1 false)
  %40 = load i32, ptr %12, align 4
  switch i32 %40, label %64 [
    i32 7, label %41
    i32 9, label %41
    i32 316, label %51
  ]

41:                                               ; preds = %31, %31
  %42 = load ptr, ptr %16, align 8
  %43 = getelementptr inbounds [16 x i8], ptr %17, i64 0, i64 0
  %44 = call i32 @gcry_cipher_encrypt(ptr noundef %42, ptr noundef %43, i64 noundef 16, ptr noundef null, i64 noundef 0)
  %45 = icmp ne i32 %44, 0
  br i1 %45, label %46, label %47

46:                                               ; preds = %41
  store i1 false, ptr %8, align 1
  store i32 1, ptr %19, align 4
  br label %150

47:                                               ; preds = %41
  %48 = getelementptr inbounds [5 x i8], ptr %18, i64 0, i64 0
  %49 = getelementptr inbounds [16 x i8], ptr %17, i64 0, i64 0
  %50 = call ptr @memcpy.inline(ptr noundef %48, ptr noundef %49, i64 noundef 5) #19
  br label %65

51:                                               ; preds = %31
  %52 = load ptr, ptr %16, align 8
  %53 = getelementptr inbounds [16 x i8], ptr %17, i64 0, i64 0
  %54 = call i32 @gcry_cipher_setiv(ptr noundef %52, ptr noundef %53, i64 noundef 16)
  %55 = icmp ne i32 %54, 0
  br i1 %55, label %56, label %57

56:                                               ; preds = %51
  store i1 false, ptr %8, align 1
  store i32 1, ptr %19, align 4
  br label %150

57:                                               ; preds = %51
  %58 = load ptr, ptr %16, align 8
  %59 = getelementptr inbounds [5 x i8], ptr %18, i64 0, i64 0
  %60 = call i32 @gcry_cipher_encrypt(ptr noundef %58, ptr noundef %59, i64 noundef 5, ptr noundef null, i64 noundef 0)
  %61 = icmp ne i32 %60, 0
  br i1 %61, label %62, label %63

62:                                               ; preds = %57
  store i1 false, ptr %8, align 1
  store i32 1, ptr %19, align 4
  br label %150

63:                                               ; preds = %57
  br label %65

64:                                               ; preds = %31
  store i1 false, ptr %8, align 1
  store i32 1, ptr %19, align 4
  br label %150

65:                                               ; preds = %63, %47
  call void @llvm.lifetime.start.p0(i64 1, ptr %20) #19
  %66 = load ptr, ptr %9, align 8
  %67 = call zeroext i8 @tvb_get_uint8(ptr noundef %66, i32 noundef 0)
  store i8 %67, ptr %20, align 1
  %68 = load i8, ptr %20, align 1
  %69 = zext i8 %68 to i32
  %70 = and i32 %69, 128
  %71 = icmp eq i32 %70, 128
  br i1 %71, label %72, label %81

72:                                               ; preds = %65
  %73 = getelementptr [5 x i8], ptr %18, i64 0, i64 0
  %74 = load i8, ptr %73, align 1
  %75 = zext i8 %74 to i32
  %76 = and i32 %75, 15
  %77 = load i8, ptr %20, align 1
  %78 = zext i8 %77 to i32
  %79 = xor i32 %78, %76
  %80 = trunc i32 %79 to i8
  store i8 %80, ptr %20, align 1
  br label %105

81:                                               ; preds = %65
  %82 = load i8, ptr %15, align 1, !range !6, !noundef !7
  %83 = trunc i8 %82 to i1
  %84 = zext i1 %83 to i32
  %85 = icmp eq i32 %84, 0
  br i1 %85, label %86, label %95

86:                                               ; preds = %81
  %87 = getelementptr [5 x i8], ptr %18, i64 0, i64 0
  %88 = load i8, ptr %87, align 1
  %89 = zext i8 %88 to i32
  %90 = and i32 %89, 31
  %91 = load i8, ptr %20, align 1
  %92 = zext i8 %91 to i32
  %93 = xor i32 %92, %90
  %94 = trunc i32 %93 to i8
  store i8 %94, ptr %20, align 1
  br label %104

95:                                               ; preds = %81
  %96 = getelementptr [5 x i8], ptr %18, i64 0, i64 0
  %97 = load i8, ptr %96, align 1
  %98 = zext i8 %97 to i32
  %99 = and i32 %98, 7
  %100 = load i8, ptr %20, align 1
  %101 = zext i8 %100 to i32
  %102 = xor i32 %101, %99
  %103 = trunc i32 %102 to i8
  store i8 %103, ptr %20, align 1
  br label %104

104:                                              ; preds = %95, %86
  br label %105

105:                                              ; preds = %104, %72
  call void @llvm.lifetime.start.p0(i64 4, ptr %21) #19
  %106 = load i8, ptr %20, align 1
  %107 = zext i8 %106 to i32
  %108 = and i32 %107, 3
  %109 = add i32 %108, 1
  store i32 %109, ptr %21, align 4
  call void @llvm.lifetime.start.p0(i64 4, ptr %22) #19
  %110 = load ptr, ptr %9, align 8
  %111 = getelementptr inbounds [4 x i8], ptr %22, i64 0, i64 0
  %112 = load i32, ptr %10, align 4
  %113 = load i32, ptr %21, align 4
  %114 = zext i32 %113 to i64
  %115 = call ptr @tvb_memcpy(ptr noundef %110, ptr noundef %111, i32 noundef %112, i64 noundef %114)
  call void @llvm.lifetime.start.p0(i64 4, ptr %23) #19
  store i32 0, ptr %23, align 4
  call void @llvm.lifetime.start.p0(i64 4, ptr %24) #19
  store i32 0, ptr %24, align 4
  br label %116

116:                                              ; preds = %142, %105
  %117 = load i32, ptr %24, align 4
  %118 = load i32, ptr %21, align 4
  %119 = icmp ult i32 %117, %118
  br i1 %119, label %121, label %120

120:                                              ; preds = %116
  store i32 3, ptr %19, align 4
  call void @llvm.lifetime.end.p0(i64 4, ptr %24) #19
  br label %145

121:                                              ; preds = %116
  %122 = load i32, ptr %24, align 4
  %123 = zext i32 %122 to i64
  %124 = getelementptr [4 x i8], ptr %22, i64 0, i64 %123
  %125 = load i8, ptr %124, align 1
  %126 = zext i8 %125 to i32
  %127 = load i32, ptr %24, align 4
  %128 = add i32 1, %127
  %129 = zext i32 %128 to i64
  %130 = getelementptr [5 x i8], ptr %18, i64 0, i64 %129
  %131 = load i8, ptr %130, align 1
  %132 = zext i8 %131 to i32
  %133 = xor i32 %126, %132
  %134 = load i32, ptr %21, align 4
  %135 = sub i32 %134, 1
  %136 = load i32, ptr %24, align 4
  %137 = sub i32 %135, %136
  %138 = mul i32 8, %137
  %139 = shl i32 %133, %138
  %140 = load i32, ptr %23, align 4
  %141 = or i32 %140, %139
  store i32 %141, ptr %23, align 4
  br label %142

142:                                              ; preds = %121
  %143 = load i32, ptr %24, align 4
  %144 = add i32 %143, 1
  store i32 %144, ptr %24, align 4
  br label %116, !llvm.loop !24

145:                                              ; preds = %120
  %146 = load i8, ptr %20, align 1
  %147 = load ptr, ptr %13, align 8
  store i8 %146, ptr %147, align 1
  %148 = load i32, ptr %23, align 4
  %149 = load ptr, ptr %14, align 8
  store i32 %148, ptr %149, align 4
  store i1 true, ptr %8, align 1
  store i32 1, ptr %19, align 4
  call void @llvm.lifetime.end.p0(i64 4, ptr %23) #19
  call void @llvm.lifetime.end.p0(i64 4, ptr %22) #19
  call void @llvm.lifetime.end.p0(i64 4, ptr %21) #19
  call void @llvm.lifetime.end.p0(i64 1, ptr %20) #19
  br label %150

150:                                              ; preds = %145, %64, %62, %56, %46
  call void @llvm.lifetime.end.p0(i64 5, ptr %18) #19
  call void @llvm.lifetime.end.p0(i64 16, ptr %17) #19
  call void @llvm.lifetime.end.p0(i64 8, ptr %16) #19
  br label %151

151:                                              ; preds = %150, %30
  %152 = load i1, ptr %8, align 1
  ret i1 %152
}