; Function Attrs: null_pointer_is_valid sspstrong uwtable
define internal fastcc noundef zeroext i1 @quic_decrypt_header(ptr noundef %0, i32 noundef %1, ptr %.0.val, i32 noundef %2, ptr noundef writeonly captures(none) %3, ptr noundef writeonly captures(none) %4, i1 noundef zeroext %5) unnamed_addr #0 {
  %7 = alloca [16 x i8], align 16
  %8 = alloca [5 x i8], align 1
  %9 = alloca [4 x i8], align 1
  %.not = icmp eq ptr %.0.val, null
  br i1 %.not, label %41, label %10

10:                                               ; preds = %6
  call void @llvm.lifetime.start.p0(i64 16, ptr nonnull %7) #18
  %11 = add i32 %1, 4
  %12 = call ptr @tvb_memcpy(ptr noundef %0, ptr noundef nonnull %7, i32 noundef %11, i64 noundef 16)
  call void @llvm.lifetime.start.p0(i64 5, ptr nonnull %8) #18
  call void @llvm.memset.p0.i64(ptr noundef nonnull align 1 dereferenceable(5) %8, i8 0, i64 5, i1 false)
  switch i32 %2, label %40 [
    i32 7, label %13
    i32 9, label %13
    i32 316, label %16
  ]

13:                                               ; preds = %10, %10
  %14 = call i32 @gcry_cipher_encrypt(ptr noundef nonnull %.0.val, ptr noundef nonnull %7, i64 noundef 16, ptr noundef null, i64 noundef 0)
  %.not36 = icmp eq i32 %14, 0
  br i1 %.not36, label %15, label %40

15:                                               ; preds = %13
  call void @llvm.memcpy.p0.p0.i64(ptr noundef nonnull align 1 dereferenceable(5) %8, ptr noundef nonnull align 16 dereferenceable(5) %7, i64 noundef 5, i1 noundef false) #18
  br label %20

16:                                               ; preds = %10
  %17 = call i32 @gcry_cipher_setiv(ptr noundef nonnull %.0.val, ptr noundef nonnull %7, i64 noundef 16)
  %.not34 = icmp eq i32 %17, 0
  br i1 %.not34, label %18, label %40

18:                                               ; preds = %16
  %19 = call i32 @gcry_cipher_encrypt(ptr noundef nonnull %.0.val, ptr noundef nonnull %8, i64 noundef 5, ptr noundef null, i64 noundef 0)
  %.not35 = icmp eq i32 %19, 0
  br i1 %.not35, label %20, label %40

20:                                               ; preds = %18, %15
  %21 = call zeroext i8 @tvb_get_uint8(ptr noundef %0, i32 noundef 0)
  %.not37 = icmp sgt i8 %21, -1
  %22 = load i8, ptr %8, align 1
  %. = select i1 %5, i8 7, i8 31
  %.sink = select i1 %.not37, i8 %., i8 15
  %23 = and i8 %22, %.sink
  %.032 = xor i8 %23, %21
  %24 = and i8 %.032, 3
  %narrow = add nuw nsw i8 %24, 1
  call void @llvm.lifetime.start.p0(i64 4, ptr nonnull %9) #18
  %25 = zext nneg i8 %narrow to i64
  %26 = call ptr @tvb_memcpy(ptr noundef %0, ptr noundef nonnull %9, i32 noundef %1, i64 noundef %25)
  %27 = zext nneg i8 %24 to i64
  br label %29

28:                                               ; preds = %29
  store i8 %.032, ptr %3, align 1
  store i32 %39, ptr %4, align 4
  call void @llvm.lifetime.end.p0(i64 4, ptr nonnull %9) #18
  br label %40

29:                                               ; preds = %20, %29
  %indvars.iv = phi i64 [ 0, %20 ], [ %indvars.iv.next, %29 ]
  %.0301 = phi i32 [ 0, %20 ], [ %39, %29 ]
  %30 = getelementptr [4 x i8], ptr %9, i64 0, i64 %indvars.iv
  %31 = load i8, ptr %30, align 1
  %indvars.iv.next = add nuw nsw i64 %indvars.iv, 1
  %32 = getelementptr [5 x i8], ptr %8, i64 0, i64 %indvars.iv.next
  %33 = load i8, ptr %32, align 1
  %34 = xor i8 %33, %31
  %35 = zext i8 %34 to i32
  %36 = sub nuw nsw i64 %27, %indvars.iv
  %.tr = trunc nuw nsw i64 %36 to i32
  %37 = shl nuw nsw i32 %.tr, 3
  %38 = shl nuw i32 %35, %37
  %39 = or i32 %38, %.0301
  %exitcond.not = icmp eq i64 %indvars.iv.next, %25
  br i1 %exitcond.not, label %28, label %29, !llvm.loop !22

40:                                               ; preds = %10, %18, %16, %13, %28
  %.1 = phi i1 [ true, %28 ], [ false, %13 ], [ false, %16 ], [ false, %18 ], [ false, %10 ]
  call void @llvm.lifetime.end.p0(i64 5, ptr nonnull %8) #18
  call void @llvm.lifetime.end.p0(i64 16, ptr nonnull %7) #18
  br label %41

41:                                               ; preds = %6, %40
  %.031 = phi i1 [ %.1, %40 ], [ false, %6 ]
  ret i1 %.031
}